target datalayout = "e-m:e-p270:32:32-p271:32:32-p272:64:64-i64:64-i128:128-f80:128-n8:16:32:64-S128"
target triple = "x86_64-pc-linux-gnu"

%struct.AVPixFmtDescriptor = type { ptr, i8, i8, i8, i64, [4 x %struct.AVComponentDescriptor], ptr }
%struct.AVComponentDescriptor = type { i32, i32, i32, i32, i32 }

; Function Attrs: nounwind uwtable
define i32 @av_image_fill_plane_sizes(ptr noundef %0, i32 noundef %1, i32 noundef %2, ptr noundef %3) #0 {
  %5 = alloca i32, align 4
  %6 = alloca ptr, align 8
  %7 = alloca i32, align 4
  %8 = alloca i32, align 4
  %9 = alloca ptr, align 8
  %10 = alloca i32, align 4
  %11 = alloca [4 x i32], align 16
  %12 = alloca ptr, align 8
  %13 = alloca i32, align 4
  %14 = alloca i32, align 4
  %15 = alloca i32, align 4
  store ptr %0, ptr %6, align 8, !tbaa !26
  store i32 %1, ptr %7, align 4, !tbaa !11
  store i32 %2, ptr %8, align 4, !tbaa !11
  store ptr %3, ptr %9, align 8, !tbaa !26
  call void @llvm.lifetime.start.p0(i64 4, ptr %10) #9
  call void @llvm.lifetime.start.p0(i64 16, ptr %11) #9
  call void @llvm.memset.p0.i64(ptr align 16 %11, i8 0, i64 16, i1 false)
  call void @llvm.lifetime.start.p0(i64 8, ptr %12) #9
  %16 = load i32, ptr %7, align 4, !tbaa !11
  %17 = call ptr @av_pix_fmt_desc_get(i32 noundef %16)
  store ptr %17, ptr %12, align 8, !tbaa !9
  %18 = load ptr, ptr %6, align 8, !tbaa !26
  call void @llvm.memset.p0.i64(ptr align 8 %18, i8 0, i64 32, i1 false)
  %19 = load ptr, ptr %12, align 8, !tbaa !9
  %20 = icmp ne ptr %19, null
  br i1 %20, label %21, label %27

21:                                               ; preds = %4
  %22 = load ptr, ptr %12, align 8, !tbaa !9
  %23 = getelementptr inbounds nuw %struct.AVPixFmtDescriptor, ptr %22, i32 0, i32 4
  %24 = load i64, ptr %23, align 8, !tbaa !20
  %25 = and i64 %24, 8
  %26 = icmp ne i64 %25, 0
  br i1 %26, label %27, label %28

27:                                               ; preds = %21, %4
  store i32 -22, ptr %5, align 4
  store i32 1, ptr %13, align 4
  br label %134

28:                                               ; preds = %21
  %29 = load ptr, ptr %9, align 8, !tbaa !26
  %30 = getelementptr inbounds i64, ptr %29, i64 0
  %31 = load i64, ptr %30, align 8, !tbaa !28
  %32 = load i32, ptr %8, align 4, !tbaa !11
  %33 = sext i32 %32 to i64
  %34 = udiv i64 -1, %33
  %35 = icmp ugt i64 %31, %34
  br i1 %35, label %36, label %37

36:                                               ; preds = %28
  store i32 -22, ptr %5, align 4
  store i32 1, ptr %13, align 4
  br label %134

37:                                               ; preds = %28
  %38 = load ptr, ptr %9, align 8, !tbaa !26
  %39 = getelementptr inbounds i64, ptr %38, i64 0
  %40 = load i64, ptr %39, align 8, !tbaa !28
  %41 = load i32, ptr %8, align 4, !tbaa !11
  %42 = sext i32 %41 to i64
  %43 = mul i64 %40, %42
  %44 = load ptr, ptr %6, align 8, !tbaa !26
  %45 = getelementptr inbounds i64, ptr %44, i64 0
  store i64 %43, ptr %45, align 8, !tbaa !28
  %46 = load ptr, ptr %12, align 8, !tbaa !9
  %47 = getelementptr inbounds nuw %struct.AVPixFmtDescriptor, ptr %46, i32 0, i32 4
  %48 = load i64, ptr %47, align 8, !tbaa !20
  %49 = and i64 %48, 2
  %50 = icmp ne i64 %49, 0
  br i1 %50, label %51, label %54

51:                                               ; preds = %37
  %52 = load ptr, ptr %6, align 8, !tbaa !26
  %53 = getelementptr inbounds i64, ptr %52, i64 1
  store i64 1024, ptr %53, align 8, !tbaa !28
  store i32 0, ptr %5, align 4
  store i32 1, ptr %13, align 4
  br label %134

54:                                               ; preds = %37
  store i32 0, ptr %10, align 4, !tbaa !11
  br label %55

55:                                               ; preds = %68, %54
  %56 = load i32, ptr %10, align 4, !tbaa !11
  %57 = icmp slt i32 %56, 4
  br i1 %57, label %58, label %71

58:                                               ; preds = %55
  %59 = load ptr, ptr %12, align 8, !tbaa !9
  %60 = getelementptr inbounds nuw %struct.AVPixFmtDescriptor, ptr %59, i32 0, i32 5
  %61 = load i32, ptr %10, align 4, !tbaa !11
  %62 = sext i32 %61 to i64
  %63 = getelementptr inbounds [4 x %struct.AVComponentDescriptor], ptr %60, i64 0, i64 %62
  %64 = getelementptr inbounds nuw %struct.AVComponentDescriptor, ptr %63, i32 0, i32 0
  %65 = load i32, ptr %64, align 4, !tbaa !17
  %66 = sext i32 %65 to i64
  %67 = getelementptr inbounds [4 x i32], ptr %11, i64 0, i64 %66
  store i32 1, ptr %67, align 4, !tbaa !11
  br label %68

68:                                               ; preds = %58
  %69 = load i32, ptr %10, align 4, !tbaa !11
  %70 = add nsw i32 %69, 1
  store i32 %70, ptr %10, align 4, !tbaa !11
  br label %55, !llvm.loop !29

71:                                               ; preds = %55
  store i32 1, ptr %10, align 4, !tbaa !11
  br label %72

72:                                               ; preds = %130, %71
  %73 = load i32, ptr %10, align 4, !tbaa !11
  %74 = icmp slt i32 %73, 4
  br i1 %74, label %75, label %81

75:                                               ; preds = %72
  %76 = load i32, ptr %10, align 4, !tbaa !11
  %77 = sext i32 %76 to i64
  %78 = getelementptr inbounds [4 x i32], ptr %11, i64 0, i64 %77
  %79 = load i32, ptr %78, align 4, !tbaa !11
  %80 = icmp ne i32 %79, 0
  br label %81

81:                                               ; preds = %75, %72
  %82 = phi i1 [ false, %72 ], [ %80, %75 ]
  br i1 %82, label %83, label %133

83:                                               ; preds = %81
  call void @llvm.lifetime.start.p0(i64 4, ptr %14) #9
  call void @llvm.lifetime.start.p0(i64 4, ptr %15) #9
  %84 = load i32, ptr %10, align 4, !tbaa !11
  %85 = icmp eq i32 %84, 1
  br i1 %85, label %89, label %86

86:                                               ; preds = %83
  %87 = load i32, ptr %10, align 4, !tbaa !11
  %88 = icmp eq i32 %87, 2
  br i1 %88, label %89, label %94

89:                                               ; preds = %86, %83
  %90 = load ptr, ptr %12, align 8, !tbaa !9
  %91 = getelementptr inbounds nuw %struct.AVPixFmtDescriptor, ptr %90, i32 0, i32 3
  %92 = load i8, ptr %91, align 2, !tbaa !30
  %93 = zext i8 %92 to i32
  br label %95

94:                                               ; preds = %86
  br label %95

95:                                               ; preds = %94, %89
  %96 = phi i32 [ %93, %89 ], [ 0, %94 ]
  store i32 %96, ptr %15, align 4, !tbaa !11
  %97 = load i32, ptr %8, align 4, !tbaa !11
  %98 = load i32, ptr %15, align 4, !tbaa !11
  %99 = shl i32 1, %98
  %100 = add nsw i32 %97, %99
  %101 = sub nsw i32 %100, 1
  %102 = load i32, ptr %15, align 4, !tbaa !11
  %103 = ashr i32 %101, %102
  store i32 %103, ptr %14, align 4, !tbaa !11
  %104 = load ptr, ptr %9, align 8, !tbaa !26
  %105 = load i32, ptr %10, align 4, !tbaa !11
  %106 = sext i32 %105 to i64
  %107 = getelementptr inbounds i64, ptr %104, i64 %106
  %108 = load i64, ptr %107, align 8, !tbaa !28
  %109 = load i32, ptr %14, align 4, !tbaa !11
  %110 = sext i32 %109 to i64
  %111 = udiv i64 -1, %110
  %112 = icmp ugt i64 %108, %111
  br i1 %112, label %113, label %114

113:                                              ; preds = %95
  store i32 -22, ptr %5, align 4
  store i32 1, ptr %13, align 4
  br label %127

114:                                              ; preds = %95
  %115 = load i32, ptr %14, align 4, !tbaa !11
  %116 = sext i32 %115 to i64
  %117 = load ptr, ptr %9, align 8, !tbaa !26
  %118 = load i32, ptr %10, align 4, !tbaa !11
  %119 = sext i32 %118 to i64
  %120 = getelementptr inbounds i64, ptr %117, i64 %119
  %121 = load i64, ptr %120, align 8, !tbaa !28
  %122 = mul i64 %116, %121
  %123 = load ptr, ptr %6, align 8, !tbaa !26
  %124 = load i32, ptr %10, align 4, !tbaa !11
  %125 = sext i32 %124 to i64
  %126 = getelementptr inbounds i64, ptr %123, i64 %125
  store i64 %122, ptr %126, align 8, !tbaa !28
  store i32 0, ptr %13, align 4
  br label %127

127:                                              ; preds = %114, %113
  call void @llvm.lifetime.end.p0(i64 4, ptr %15) #9
  call void @llvm.lifetime.end.p0(i64 4, ptr %14) #9
  %128 = load i32, ptr %13, align 4
  switch i32 %128, label %134 [
    i32 0, label %129
  ]

129:                                              ; preds = %127
  br label %130

130:                                              ; preds = %129
  %131 = load i32, ptr %10, align 4, !tbaa !11
  %132 = add nsw i32 %131, 1
  store i32 %132, ptr %10, align 4, !tbaa !11
  br label %72, !llvm.loop !31

133:                                              ; preds = %81
  store i32 0, ptr %5, align 4
  store i32 1, ptr %13, align 4
  br label %134

134:                                              ; preds = %133, %127, %51, %36, %27
  call void @llvm.lifetime.end.p0(i64 8, ptr %12) #9
  call void @llvm.lifetime.end.p0(i64 16, ptr %11) #9
  call void @llvm.lifetime.end.p0(i64 4, ptr %10) #9
  %135 = load i32, ptr %5, align 4
  ret i32 %135
}