; Function Attrs: nounwind uwtable
define range(i32 -22, 1) i32 @av_image_fill_plane_sizes(ptr noundef writeonly captures(none) initializes((0, 32)) %0, i32 noundef %1, i32 noundef %2, ptr noundef readonly captures(none) %3) local_unnamed_addr #3 {
  %5 = alloca [4 x i32], align 16
  call void @llvm.lifetime.start.p0(i64 16, ptr nonnull %5) #11
  call void @llvm.memset.p0.i64(ptr noundef nonnull align 16 dereferenceable(16) %5, i8 0, i64 16, i1 false)
  %6 = tail call ptr @av_pix_fmt_desc_get(i32 noundef %1) #11
  tail call void @llvm.memset.p0.i64(ptr noundef nonnull align 8 dereferenceable(32) %0, i8 0, i64 32, i1 false)
  %.not = icmp eq ptr %6, null
  br i1 %.not, label %.critedge, label %7

7:                                                ; preds = %4
  %8 = getelementptr inbounds nuw i8, ptr %6, i64 16
  %9 = load i64, ptr %8, align 8, !tbaa !13
  %10 = and i64 %9, 8
  %.not40 = icmp eq i64 %10, 0
  br i1 %.not40, label %11, label %.critedge

11:                                               ; preds = %7
  %12 = load i64, ptr %3, align 8, !tbaa !20
  %13 = sext i32 %2 to i64
  %mul = tail call { i64, i1 } @llvm.umul.with.overflow.i64(i64 %13, i64 %12)
  %mul.ov = extractvalue { i64, i1 } %mul, 1
  br i1 %mul.ov, label %.critedge, label %14

14:                                               ; preds = %11
  %15 = mul i64 %12, %13
  store i64 %15, ptr %0, align 8, !tbaa !20
  %16 = load i64, ptr %8, align 8, !tbaa !13
  %17 = and i64 %16, 2
  %.not41 = icmp eq i64 %17, 0
  br i1 %.not41, label %.preheader47, label %19

.preheader47:                                     ; preds = %14
  %18 = getelementptr inbounds nuw i8, ptr %6, i64 24
  br label %23

19:                                               ; preds = %14
  %20 = getelementptr inbounds nuw i8, ptr %0, i64 8
  store i64 1024, ptr %20, align 8, !tbaa !20
  br label %.critedge

.preheader:                                       ; preds = %23
  %21 = getelementptr inbounds nuw i8, ptr %6, i64 10
  %22 = add i32 %2, -1
  br label %28

23:                                               ; preds = %.preheader47, %23
  %indvars.iv = phi i64 [ 0, %.preheader47 ], [ %indvars.iv.next, %23 ]
  %24 = getelementptr inbounds nuw [4 x %struct.AVComponentDescriptor], ptr %18, i64 0, i64 %indvars.iv
  %25 = load i32, ptr %24, align 4, !tbaa !9
  %26 = sext i32 %25 to i64
  %27 = getelementptr inbounds [4 x i32], ptr %5, i64 0, i64 %26
  store i32 1, ptr %27, align 4, !tbaa !10
  %indvars.iv.next = add nuw nsw i64 %indvars.iv, 1
  %exitcond.not = icmp eq i64 %indvars.iv.next, 4
  br i1 %exitcond.not, label %.preheader, label %23, !llvm.loop !21

28:                                               ; preds = %.preheader, %43
  %indvars.iv51 = phi i64 [ 1, %.preheader ], [ %indvars.iv.next52, %43 ]
  %29 = getelementptr inbounds nuw [4 x i32], ptr %5, i64 0, i64 %indvars.iv51
  %30 = load i32, ptr %29, align 4, !tbaa !10
  %.not42 = icmp eq i32 %30, 0
  br i1 %.not42, label %.critedge, label %31

31:                                               ; preds = %28
  %or.cond.not = icmp eq i64 %indvars.iv51, 3
  br i1 %or.cond.not, label %35, label %32

32:                                               ; preds = %31
  %33 = load i8, ptr %21, align 2, !tbaa !22
  %34 = zext i8 %33 to i32
  br label %35

35:                                               ; preds = %31, %32
  %36 = phi i32 [ %34, %32 ], [ 0, %31 ]
  %37 = shl nuw i32 1, %36
  %38 = add i32 %22, %37
  %39 = ashr i32 %38, %36
  %40 = getelementptr inbounds nuw i64, ptr %3, i64 %indvars.iv51
  %41 = load i64, ptr %40, align 8, !tbaa !20
  %42 = sext i32 %39 to i64
  %mul43 = tail call { i64, i1 } @llvm.umul.with.overflow.i64(i64 %42, i64 %41)
  %mul.ov44 = extractvalue { i64, i1 } %mul43, 1
  br i1 %mul.ov44, label %.critedge, label %43

43:                                               ; preds = %35
  %44 = mul i64 %41, %42
  %45 = getelementptr inbounds nuw i64, ptr %0, i64 %indvars.iv51
  store i64 %44, ptr %45, align 8, !tbaa !20
  %indvars.iv.next52 = add nuw nsw i64 %indvars.iv51, 1
  %exitcond54.not = icmp eq i64 %indvars.iv.next52, 4
  br i1 %exitcond54.not, label %.critedge, label %28, !llvm.loop !23

.critedge:                                        ; preds = %35, %28, %43, %11, %4, %7, %19
  %.0 = phi i32 [ 0, %19 ], [ -22, %7 ], [ -22, %4 ], [ -22, %11 ], [ -22, %35 ], [ 0, %28 ], [ 0, %43 ]
  call void @llvm.lifetime.end.p0(i64 16, ptr nonnull %5) #11
  ret i32 %.0
}